target datalayout = "e-m:e-p270:32:32-p271:32:32-p272:64:64-i64:64-i128:128-f80:128-n8:16:32:64-S128"
target triple = "x86_64-pc-linux-gnu"

%"struct.llvm::DIDumpOptions" = type { i32, i32, i32, i16, i8, i8, i8, i8, i8, i8, i8, i8, i8, i8, i8, %"class.std::__cxx11::basic_string", %"class.std::function", %"class.std::function.0", %"class.std::function.0" }
%"class.std::__cxx11::basic_string" = type { %"struct.std::__cxx11::basic_string<char>::_Alloc_hider", i64, %union.anon }
%"struct.std::__cxx11::basic_string<char>::_Alloc_hider" = type { ptr }
%union.anon = type { i64, [8 x i8] }
%"class.std::function" = type { %"class.std::_Function_base", ptr }
%"class.std::_Function_base" = type { %"union.std::_Any_data", ptr }
%"union.std::_Any_data" = type { %"union.std::_Nocopy_types" }
%"union.std::_Nocopy_types" = type { { i64, i64 } }
%"class.std::function.0" = type { %"class.std::_Function_base", ptr }

; Function Attrs: mustprogress nounwind uwtable
define linkonce_odr hidden noundef ptr @_ZNSt9_Any_data9_M_accessEv(ptr noundef nonnull align 8 dereferenceable(16) %0) #0 comdat align 2 {
  %2 = alloca ptr, align 8
  store ptr %0, ptr %2, align 8
  %3 = load ptr, ptr %2, align 8
  %4 = getelementptr inbounds [16 x i8], ptr %3, i64 0, i64 0
  ret ptr %4
}

; Function Attrs: mustprogress nounwind uwtable
define linkonce_odr hidden void @_ZNSt14_Function_baseD2Ev(ptr noundef nonnull align 8 dereferenceable(24) %0) unnamed_addr #0 comdat align 2 {
  %2 = alloca ptr, align 8
  store ptr %0, ptr %2, align 8
  %3 = load ptr, ptr %2, align 8
  %4 = getelementptr inbounds nuw %"class.std::_Function_base", ptr %3, i32 0, i32 1
  %5 = load ptr, ptr %4, align 8
  %6 = icmp ne ptr %5, null
  br i1 %6, label %7, label %13

7:                                                ; preds = %1
  %8 = getelementptr inbounds nuw %"class.std::_Function_base", ptr %3, i32 0, i32 1
  %9 = load ptr, ptr %8, align 8
  %10 = getelementptr inbounds nuw %"class.std::_Function_base", ptr %3, i32 0, i32 0
  %11 = getelementptr inbounds nuw %"class.std::_Function_base", ptr %3, i32 0, i32 0
  %12 = call noundef zeroext i1 %9(ptr noundef nonnull align 8 dereferenceable(16) %10, ptr noundef nonnull align 8 dereferenceable(16) %11, i32 noundef 3)
  br label %13

13:                                               ; preds = %7, %1
  ret void
}

; Function Attrs: mustprogress nounwind uwtable
define linkonce_odr hidden void @_ZNSt14_Function_base13_Base_managerIPFvN4llvm5ErrorEEE9_M_createIRS3_EEvRSt9_Any_dataOT_St17integral_constantIbLb1EE(ptr noundef nonnull align 8 dereferenceable(16) %0, ptr noundef nonnull %1) #0 comdat align 2 {
  %3 = alloca ptr, align 8
  %4 = alloca ptr, align 8
  store ptr %0, ptr %3, align 8
  store ptr %1, ptr %4, align 8
  %5 = load ptr, ptr %3, align 8
  %6 = call noundef ptr @_ZNSt9_Any_data9_M_accessEv(ptr noundef nonnull align 8 dereferenceable(16) %5) #5
  %7 = load ptr, ptr %4, align 8
  store ptr %7, ptr %6, align 8
  ret void
}

; Function Attrs: mustprogress nounwind uwtable
define linkonce_odr hidden void @_ZNSt8functionIFN4llvm9StringRefEmbEED2Ev(ptr noundef nonnull align 8 dereferenceable(32) %0) unnamed_addr #0 comdat align 2 {
  %2 = alloca ptr, align 8
  store ptr %0, ptr %2, align 8
  %3 = load ptr, ptr %2, align 8
  call void @_ZNSt14_Function_baseD2Ev(ptr noundef nonnull align 8 dereferenceable(24) %3) #5
  ret void
}

; Function Attrs: mustprogress nounwind uwtable
define linkonce_odr hidden void @_ZNSt8functionIFvN4llvm5ErrorEEED2Ev(ptr noundef nonnull align 8 dereferenceable(32) %0) unnamed_addr #0 comdat align 2 {
  %2 = alloca ptr, align 8
  store ptr %0, ptr %2, align 8
  %3 = load ptr, ptr %2, align 8
  call void @_ZNSt14_Function_baseD2Ev(ptr noundef nonnull align 8 dereferenceable(24) %3) #5
  ret void
}

; Function Attrs: mustprogress nounwind uwtable
define linkonce_odr hidden void @_ZNSt14_Function_base13_Base_managerIPFvN4llvm5ErrorEEE15_M_init_functorIRS3_EEvRSt9_Any_dataOT_(ptr noundef nonnull align 8 dereferenceable(16) %0, ptr noundef nonnull %1) #0 comdat align 2 {
  %3 = alloca ptr, align 8
  %4 = alloca ptr, align 8
  store ptr %0, ptr %3, align 8
  store ptr %1, ptr %4, align 8
  %5 = load ptr, ptr %3, align 8
  %6 = load ptr, ptr %4, align 8
  call void @_ZNSt14_Function_base13_Base_managerIPFvN4llvm5ErrorEEE9_M_createIRS3_EEvRSt9_Any_dataOT_St17integral_constantIbLb1EE(ptr noundef nonnull align 8 dereferenceable(16) %5, ptr noundef nonnull %6)
  ret void
}

; Function Attrs: mustprogress nounwind uwtable
define linkonce_odr hidden noundef zeroext i1 @_ZNSt14_Function_base13_Base_managerIPFvN4llvm5ErrorEEE21_M_not_empty_functionIS3_EEbPT_(ptr noundef %0) #0 comdat align 2 {
  %2 = alloca ptr, align 8
  store ptr %0, ptr %2, align 8
  %3 = load ptr, ptr %2, align 8
  %4 = icmp ne ptr %3, null
  ret i1 %4
}

; Function Attrs: mustprogress nounwind uwtable
define linkonce_odr hidden void @_ZNSt14_Function_baseC2Ev(ptr noundef nonnull align 8 dereferenceable(24) %0) unnamed_addr #0 comdat align 2 {
  %2 = alloca ptr, align 8
  store ptr %0, ptr %2, align 8
  %3 = load ptr, ptr %2, align 8
  %4 = getelementptr inbounds nuw %"class.std::_Function_base", ptr %3, i32 0, i32 0
  store ptr null, ptr %4, align 8
  %5 = getelementptr inbounds nuw %"class.std::_Function_base", ptr %3, i32 0, i32 1
  store ptr null, ptr %5, align 8
  ret void
}

; Function Attrs: mustprogress nounwind uwtable
define linkonce_odr hidden void @_ZN4llvm13DIDumpOptionsD2Ev(ptr noundef nonnull align 8 dereferenceable(160) %0) unnamed_addr #0 comdat align 2 {
  %2 = alloca ptr, align 8
  store ptr %0, ptr %2, align 8
  %3 = load ptr, ptr %2, align 8
  %4 = getelementptr inbounds nuw %"struct.llvm::DIDumpOptions", ptr %3, i32 0, i32 18
  call void @_ZNSt8functionIFvN4llvm5ErrorEEED2Ev(ptr noundef nonnull align 8 dereferenceable(32) %4) #5
  %5 = getelementptr inbounds nuw %"struct.llvm::DIDumpOptions", ptr %3, i32 0, i32 17
  call void @_ZNSt8functionIFvN4llvm5ErrorEEED2Ev(ptr noundef nonnull align 8 dereferenceable(32) %5) #5
  %6 = getelementptr inbounds nuw %"struct.llvm::DIDumpOptions", ptr %3, i32 0, i32 16
  call void @_ZNSt8functionIFN4llvm9StringRefEmbEED2Ev(ptr noundef nonnull align 8 dereferenceable(32) %6) #5
  %7 = getelementptr inbounds nuw %"struct.llvm::DIDumpOptions", ptr %3, i32 0, i32 15
  call void @_ZNSt7__cxx1112basic_stringIcSt11char_traitsIcESaIcEED1Ev(ptr noundef nonnull align 8 dereferenceable(32) %7) #5
  ret void
}

; Function Attrs: mustprogress nounwind uwtable
define linkonce_odr hidden void @_ZNSt8functionIFvN4llvm5ErrorEEEC2IRS2_vEEOT_(ptr noundef nonnull align 8 dereferenceable(32) %0, ptr noundef nonnull %1) unnamed_addr #0 comdat align 2 {
  %3 = alloca ptr, align 8
  %4 = alloca ptr, align 8
  store ptr %0, ptr %3, align 8
  store ptr %1, ptr %4, align 8
  %5 = load ptr, ptr %3, align 8
  %6 = getelementptr inbounds i8, ptr %5, i64 0
  call void @llvm.memset.p0.i64(ptr align 8 %6, i8 0, i64 24, i1 false)
  call void @_ZNSt14_Function_baseC2Ev(ptr noundef nonnull align 8 dereferenceable(24) %5) #5
  %7 = getelementptr inbounds nuw %"class.std::function.0", ptr %5, i32 0, i32 1
  store ptr null, ptr %7, align 8
  %8 = load ptr, ptr %4, align 8
  %9 = call noundef zeroext i1 @_ZNSt14_Function_base13_Base_managerIPFvN4llvm5ErrorEEE21_M_not_empty_functionIS3_EEbPT_(ptr noundef %8) #5
  br i1 %9, label %10, label %15

10:                                               ; preds = %2
  %11 = getelementptr inbounds nuw %"class.std::_Function_base", ptr %5, i32 0, i32 0
  %12 = load ptr, ptr %4, align 8
  call void @_ZNSt14_Function_base13_Base_managerIPFvN4llvm5ErrorEEE15_M_init_functorIRS3_EEvRSt9_Any_dataOT_(ptr noundef nonnull align 8 dereferenceable(16) %11, ptr noundef nonnull %12) #5
  %13 = getelementptr inbounds nuw %"class.std::function.0", ptr %5, i32 0, i32 1
  store ptr @_ZNSt17_Function_handlerIFvN4llvm5ErrorEEPS2_E9_M_invokeERKSt9_Any_dataOS1_, ptr %13, align 8
  %14 = getelementptr inbounds nuw %"class.std::_Function_base", ptr %5, i32 0, i32 1
  store ptr @_ZNSt17_Function_handlerIFvN4llvm5ErrorEEPS2_E10_M_managerERSt9_Any_dataRKS5_St18_Manager_operation, ptr %14, align 8
  br label %15

15:                                               ; preds = %10, %2
  ret void
}

; Function Attrs: mustprogress nounwind uwtable
define linkonce_odr hidden void @_ZNSt8functionIFN4llvm9StringRefEmbEEC2Ev(ptr noundef nonnull align 8 dereferenceable(32) %0) unnamed_addr #0 comdat align 2 {
  %2 = alloca ptr, align 8
  store ptr %0, ptr %2, align 8
  %3 = load ptr, ptr %2, align 8
  %4 = getelementptr inbounds i8, ptr %3, i64 0
  call void @llvm.memset.p0.i64(ptr align 8 %4, i8 0, i64 24, i1 false)
  call void @_ZNSt14_Function_baseC2Ev(ptr noundef nonnull align 8 dereferenceable(24) %3) #5
  %5 = getelementptr inbounds nuw %"class.std::function", ptr %3, i32 0, i32 1
  store ptr null, ptr %5, align 8
  ret void
}

; Function Attrs: mustprogress nounwind uwtable
define dso_local noundef nonnull align 8 dereferenceable(48) ptr @_ZN4llvmlsERNS_11raw_ostreamERKNS_17DWARFAddressRangeE(ptr noundef nonnull align 8 dereferenceable(48) %0, ptr noundef nonnull align 8 dereferenceable(24) %1) #0 {
  %3 = alloca ptr, align 8
  %4 = alloca ptr, align 8
  %5 = alloca %"struct.llvm::DIDumpOptions", align 8
  store ptr %0, ptr %3, align 8
  store ptr %1, ptr %4, align 8
  %6 = load ptr, ptr %4, align 8
  %7 = load ptr, ptr %3, align 8
  %8 = getelementptr inbounds nuw %"struct.llvm::DIDumpOptions", ptr %5, i32 0, i32 0
  store i32 -1, ptr %8, align 8
  %9 = getelementptr inbounds nuw %"struct.llvm::DIDumpOptions", ptr %5, i32 0, i32 1
  store i32 -1, ptr %9, align 4
  %10 = getelementptr inbounds nuw %"struct.llvm::DIDumpOptions", ptr %5, i32 0, i32 2
  store i32 -1, ptr %10, align 8
  %11 = getelementptr inbounds nuw %"struct.llvm::DIDumpOptions", ptr %5, i32 0, i32 3
  store i16 0, ptr %11, align 4
  %12 = getelementptr inbounds nuw %"struct.llvm::DIDumpOptions", ptr %5, i32 0, i32 4
  store i8 4, ptr %12, align 2
  %13 = getelementptr inbounds nuw %"struct.llvm::DIDumpOptions", ptr %5, i32 0, i32 5
  store i8 1, ptr %13, align 1
  %14 = getelementptr inbounds nuw %"struct.llvm::DIDumpOptions", ptr %5, i32 0, i32 6
  store i8 0, ptr %14, align 8
  %15 = getelementptr inbounds nuw %"struct.llvm::DIDumpOptions", ptr %5, i32 0, i32 7
  store i8 0, ptr %15, align 1
  %16 = getelementptr inbounds nuw %"struct.llvm::DIDumpOptions", ptr %5, i32 0, i32 8
  store i8 0, ptr %16, align 2
  %17 = getelementptr inbounds nuw %"struct.llvm::DIDumpOptions", ptr %5, i32 0, i32 9
  store i8 0, ptr %17, align 1
  %18 = getelementptr inbounds nuw %"struct.llvm::DIDumpOptions", ptr %5, i32 0, i32 10
  store i8 0, ptr %18, align 4
  %19 = getelementptr inbounds nuw %"struct.llvm::DIDumpOptions", ptr %5, i32 0, i32 11
  store i8 0, ptr %19, align 1
  %20 = getelementptr inbounds nuw %"struct.llvm::DIDumpOptions", ptr %5, i32 0, i32 12
  store i8 0, ptr %20, align 2
  %21 = getelementptr inbounds nuw %"struct.llvm::DIDumpOptions", ptr %5, i32 0, i32 13
  store i8 0, ptr %21, align 1
  %22 = getelementptr inbounds nuw %"struct.llvm::DIDumpOptions", ptr %5, i32 0, i32 14
  store i8 0, ptr %22, align 8
  %23 = getelementptr inbounds nuw %"struct.llvm::DIDumpOptions", ptr %5, i32 0, i32 15
  call void @_ZNSt7__cxx1112basic_stringIcSt11char_traitsIcESaIcEEC1Ev(ptr noundef nonnull align 8 dereferenceable(32) %23) #5
  %24 = getelementptr inbounds nuw %"struct.llvm::DIDumpOptions", ptr %5, i32 0, i32 16
  call void @_ZNSt8functionIFN4llvm9StringRefEmbEEC2Ev(ptr noundef nonnull align 8 dereferenceable(32) %24) #5
  %25 = getelementptr inbounds nuw %"struct.llvm::DIDumpOptions", ptr %5, i32 0, i32 17
  call void @_ZNSt8functionIFvN4llvm5ErrorEEEC2IRS2_vEEOT_(ptr noundef nonnull align 8 dereferenceable(32) %25, ptr noundef nonnull @_ZN4llvm9WithColor19defaultErrorHandlerENS_5ErrorE) #5
  %26 = getelementptr inbounds nuw %"struct.llvm::DIDumpOptions", ptr %5, i32 0, i32 18
  call void @_ZNSt8functionIFvN4llvm5ErrorEEEC2IRS2_vEEOT_(ptr noundef nonnull align 8 dereferenceable(32) %26, ptr noundef nonnull @_ZN4llvm9WithColor21defaultWarningHandlerENS_5ErrorE) #5
  call void @_ZNK4llvm17DWARFAddressRange4dumpERNS_11raw_ostreamEjNS_13DIDumpOptionsEPKNS_11DWARFObjectE(ptr noundef nonnull align 8 dereferenceable(24) %6, ptr noundef nonnull align 8 dereferenceable(48) %7, i32 noundef 8, ptr noundef %5, ptr noundef null)
  call void @_ZN4llvm13DIDumpOptionsD2Ev(ptr noundef nonnull align 8 dereferenceable(160) %5) #5
  %27 = load ptr, ptr %3, align 8
  ret ptr %27
}