; Function Attrs: mustprogress nounwind uwtable
define dso_local noundef nonnull align 8 dereferenceable(48) ptr @_ZN4llvmlsERNS_11raw_ostreamERKNS_17DWARFAddressRangeE(ptr noundef nonnull returned align 8 dereferenceable(48) %0, ptr noundef nonnull readonly align 8 captures(none) dereferenceable(24) %1) local_unnamed_addr #0 {
  %3 = alloca %"struct.llvm::DIDumpOptions", align 8
  store i32 -1, ptr %3, align 8
  %4 = getelementptr inbounds nuw i8, ptr %3, i64 4
  store i32 -1, ptr %4, align 4
  %5 = getelementptr inbounds nuw i8, ptr %3, i64 8
  store i32 -1, ptr %5, align 8
  %6 = getelementptr inbounds nuw i8, ptr %3, i64 12
  store i16 0, ptr %6, align 4
  %7 = getelementptr inbounds nuw i8, ptr %3, i64 14
  store i8 4, ptr %7, align 2
  %8 = getelementptr inbounds nuw i8, ptr %3, i64 15
  store i8 1, ptr %8, align 1
  %9 = getelementptr inbounds nuw i8, ptr %3, i64 16
  %10 = getelementptr inbounds nuw i8, ptr %3, i64 32
  call void @llvm.memset.p0.i64(ptr noundef nonnull align 8 dereferenceable(9) %9, i8 0, i64 9, i1 false)
  call void @_ZNSt7__cxx1112basic_stringIcSt11char_traitsIcESaIcEEC1Ev(ptr noundef nonnull align 8 dereferenceable(32) %10) #6
  %11 = getelementptr inbounds nuw i8, ptr %3, i64 64
  call void @llvm.memset.p0.i64(ptr noundef nonnull align 8 dereferenceable(32) %11, i8 0, i64 32, i1 false)
  %12 = getelementptr inbounds nuw i8, ptr %3, i64 96
  %13 = getelementptr inbounds nuw i8, ptr %3, i64 112
  %14 = getelementptr inbounds nuw i8, ptr %3, i64 120
  %15 = getelementptr inbounds nuw i8, ptr %3, i64 104
  store i64 0, ptr %15, align 8
  store ptr @_ZN4llvm9WithColor19defaultErrorHandlerENS_5ErrorE, ptr %12, align 8
  store ptr @_ZNSt17_Function_handlerIFvN4llvm5ErrorEEPS2_E9_M_invokeERKSt9_Any_dataOS1_, ptr %14, align 8
  store ptr @_ZNSt17_Function_handlerIFvN4llvm5ErrorEEPS2_E10_M_managerERSt9_Any_dataRKS5_St18_Manager_operation, ptr %13, align 8
  %16 = getelementptr inbounds nuw i8, ptr %3, i64 128
  %17 = getelementptr inbounds nuw i8, ptr %3, i64 144
  %18 = getelementptr inbounds nuw i8, ptr %3, i64 152
  %19 = getelementptr inbounds nuw i8, ptr %3, i64 136
  store i64 0, ptr %19, align 8
  store ptr @_ZN4llvm9WithColor21defaultWarningHandlerENS_5ErrorE, ptr %16, align 8
  store ptr @_ZNSt17_Function_handlerIFvN4llvm5ErrorEEPS2_E9_M_invokeERKSt9_Any_dataOS1_, ptr %18, align 8
  store ptr @_ZNSt17_Function_handlerIFvN4llvm5ErrorEEPS2_E10_M_managerERSt9_Any_dataRKS5_St18_Manager_operation, ptr %17, align 8
  call void @_ZNK4llvm17DWARFAddressRange4dumpERNS_11raw_ostreamEjNS_13DIDumpOptionsEPKNS_11DWARFObjectE(ptr noundef nonnull align 8 dereferenceable(24) %1, ptr noundef nonnull align 8 dereferenceable(48) %0, i32 noundef 8, ptr noundef nonnull %3, ptr noundef null)
  %20 = load ptr, ptr %17, align 8
  %.not.i.i.i = icmp eq ptr %20, null
  br i1 %.not.i.i.i, label %_ZNSt8functionIFvN4llvm5ErrorEEED2Ev.exit.i, label %21

21:                                               ; preds = %2
  %22 = call noundef zeroext i1 %20(ptr noundef nonnull align 8 dereferenceable(32) %16, ptr noundef nonnull align 8 dereferenceable(32) %16, i32 noundef 3) #6
  br label %_ZNSt8functionIFvN4llvm5ErrorEEED2Ev.exit.i

_ZNSt8functionIFvN4llvm5ErrorEEED2Ev.exit.i:      ; preds = %21, %2
  %23 = load ptr, ptr %13, align 8
  %.not.i.i1.i = icmp eq ptr %23, null
  br i1 %.not.i.i1.i, label %_ZNSt8functionIFvN4llvm5ErrorEEED2Ev.exit2.i, label %24

24:                                               ; preds = %_ZNSt8functionIFvN4llvm5ErrorEEED2Ev.exit.i
  %25 = call noundef zeroext i1 %23(ptr noundef nonnull align 8 dereferenceable(32) %12, ptr noundef nonnull align 8 dereferenceable(32) %12, i32 noundef 3) #6
  br label %_ZNSt8functionIFvN4llvm5ErrorEEED2Ev.exit2.i

_ZNSt8functionIFvN4llvm5ErrorEEED2Ev.exit2.i:     ; preds = %24, %_ZNSt8functionIFvN4llvm5ErrorEEED2Ev.exit.i
  %26 = getelementptr inbounds nuw i8, ptr %3, i64 80
  %27 = load ptr, ptr %26, align 8
  %.not.i.i3.i = icmp eq ptr %27, null
  br i1 %.not.i.i3.i, label %_ZN4llvm13DIDumpOptionsD2Ev.exit, label %28

28:                                               ; preds = %_ZNSt8functionIFvN4llvm5ErrorEEED2Ev.exit2.i
  %29 = call noundef zeroext i1 %27(ptr noundef nonnull align 8 dereferenceable(32) %11, ptr noundef nonnull align 8 dereferenceable(32) %11, i32 noundef 3) #6
  br label %_ZN4llvm13DIDumpOptionsD2Ev.exit

_ZN4llvm13DIDumpOptionsD2Ev.exit:                 ; preds = %_ZNSt8functionIFvN4llvm5ErrorEEED2Ev.exit2.i, %28
  call void @_ZNSt7__cxx1112basic_stringIcSt11char_traitsIcESaIcEED1Ev(ptr noundef nonnull align 8 dereferenceable(32) %10) #6
  ret ptr %0
}